
migr4ti0n：     檔案格式 elf64-x86-64


Disassembly of section .init:

00000000004004a0 <_init>:
  4004a0:	48 83 ec 08          	sub    rsp,0x8
  4004a4:	48 8b 05 45 0b 20 00 	mov    rax,QWORD PTR [rip+0x200b45]        # 600ff0 <_GLOBAL_OFFSET_TABLE_+0x38>
  4004ab:	48 85 c0             	test   rax,rax
  4004ae:	74 05                	je     4004b5 <_init+0x15>
  4004b0:	e8 3b 00 00 00       	call   4004f0 <_init+0x50>
  4004b5:	48 83 c4 08          	add    rsp,0x8
  4004b9:	c3                   	ret    

Disassembly of section .plt:

00000000004004c0 <.plt>:
  4004c0:	ff 35 fa 0a 20 00    	push   QWORD PTR [rip+0x200afa]        # 600fc0 <_GLOBAL_OFFSET_TABLE_+0x8>
  4004c6:	ff 25 fc 0a 20 00    	jmp    QWORD PTR [rip+0x200afc]        # 600fc8 <_GLOBAL_OFFSET_TABLE_+0x10>
  4004cc:	0f 1f 40 00          	nop    DWORD PTR [rax+0x0]

Disassembly of section .plt.got:

00000000004004d0 <.plt.got>:
  4004d0:	ff 25 fa 0a 20 00    	jmp    QWORD PTR [rip+0x200afa]        # 600fd0 <_GLOBAL_OFFSET_TABLE_+0x18>
  4004d6:	66 90                	xchg   ax,ax
  4004d8:	ff 25 fa 0a 20 00    	jmp    QWORD PTR [rip+0x200afa]        # 600fd8 <_GLOBAL_OFFSET_TABLE_+0x20>
  4004de:	66 90                	xchg   ax,ax
  4004e0:	ff 25 fa 0a 20 00    	jmp    QWORD PTR [rip+0x200afa]        # 600fe0 <_GLOBAL_OFFSET_TABLE_+0x28>
  4004e6:	66 90                	xchg   ax,ax
  4004e8:	ff 25 fa 0a 20 00    	jmp    QWORD PTR [rip+0x200afa]        # 600fe8 <_GLOBAL_OFFSET_TABLE_+0x30>
  4004ee:	66 90                	xchg   ax,ax
  4004f0:	ff 25 fa 0a 20 00    	jmp    QWORD PTR [rip+0x200afa]        # 600ff0 <_GLOBAL_OFFSET_TABLE_+0x38>
  4004f6:	66 90                	xchg   ax,ax
  4004f8:	ff 25 fa 0a 20 00    	jmp    QWORD PTR [rip+0x200afa]        # 600ff8 <_GLOBAL_OFFSET_TABLE_+0x40>
  4004fe:	66 90                	xchg   ax,ax

Disassembly of section .text:

0000000000400500 <_start>:
  400500:	31 ed                	xor    ebp,ebp
  400502:	49 89 d1             	mov    r9,rdx
  400505:	5e                   	pop    rsi
  400506:	48 89 e2             	mov    rdx,rsp
  400509:	48 83 e4 f0          	and    rsp,0xfffffffffffffff0
  40050d:	50                   	push   rax
  40050e:	54                   	push   rsp
  40050f:	49 c7 c0 c0 06 40 00 	mov    r8,0x4006c0
  400516:	48 c7 c1 50 06 40 00 	mov    rcx,0x400650
  40051d:	48 c7 c7 d7 05 40 00 	mov    rdi,0x4005d7
  400524:	e8 bf ff ff ff       	call   4004e8 <_init+0x48>
  400529:	f4                   	hlt    
  40052a:	66 0f 1f 44 00 00    	nop    WORD PTR [rax+rax*1+0x0]

0000000000400530 <deregister_tm_clones>:
  400530:	55                   	push   rbp
  400531:	b8 20 10 60 00       	mov    eax,0x601020
  400536:	48 3d 20 10 60 00    	cmp    rax,0x601020
  40053c:	48 89 e5             	mov    rbp,rsp
  40053f:	74 17                	je     400558 <deregister_tm_clones+0x28>
  400541:	b8 00 00 00 00       	mov    eax,0x0
  400546:	48 85 c0             	test   rax,rax
  400549:	74 0d                	je     400558 <deregister_tm_clones+0x28>
  40054b:	5d                   	pop    rbp
  40054c:	bf 20 10 60 00       	mov    edi,0x601020
  400551:	ff e0                	jmp    rax
  400553:	0f 1f 44 00 00       	nop    DWORD PTR [rax+rax*1+0x0]
  400558:	5d                   	pop    rbp
  400559:	c3                   	ret    
  40055a:	66 0f 1f 44 00 00    	nop    WORD PTR [rax+rax*1+0x0]

0000000000400560 <register_tm_clones>:
  400560:	be 20 10 60 00       	mov    esi,0x601020
  400565:	55                   	push   rbp
  400566:	48 81 ee 20 10 60 00 	sub    rsi,0x601020
  40056d:	48 89 e5             	mov    rbp,rsp
  400570:	48 c1 fe 03          	sar    rsi,0x3
  400574:	48 89 f0             	mov    rax,rsi
  400577:	48 c1 e8 3f          	shr    rax,0x3f
  40057b:	48 01 c6             	add    rsi,rax
  40057e:	48 d1 fe             	sar    rsi,1
  400581:	74 15                	je     400598 <register_tm_clones+0x38>
  400583:	b8 00 00 00 00       	mov    eax,0x0
  400588:	48 85 c0             	test   rax,rax
  40058b:	74 0b                	je     400598 <register_tm_clones+0x38>
  40058d:	5d                   	pop    rbp
  40058e:	bf 20 10 60 00       	mov    edi,0x601020
  400593:	ff e0                	jmp    rax
  400595:	0f 1f 00             	nop    DWORD PTR [rax]
  400598:	5d                   	pop    rbp
  400599:	c3                   	ret    
  40059a:	66 0f 1f 44 00 00    	nop    WORD PTR [rax+rax*1+0x0]

00000000004005a0 <__do_global_dtors_aux>:
  4005a0:	80 3d 81 0a 20 00 00 	cmp    BYTE PTR [rip+0x200a81],0x0        # 601028 <completed.6973>
  4005a7:	75 17                	jne    4005c0 <__do_global_dtors_aux+0x20>
  4005a9:	55                   	push   rbp
  4005aa:	48 89 e5             	mov    rbp,rsp
  4005ad:	e8 7e ff ff ff       	call   400530 <deregister_tm_clones>
  4005b2:	c6 05 6f 0a 20 00 01 	mov    BYTE PTR [rip+0x200a6f],0x1        # 601028 <completed.6973>
  4005b9:	5d                   	pop    rbp
  4005ba:	c3                   	ret    
  4005bb:	0f 1f 44 00 00       	nop    DWORD PTR [rax+rax*1+0x0]
  4005c0:	f3 c3                	repz ret 
  4005c2:	0f 1f 40 00          	nop    DWORD PTR [rax+0x0]
  4005c6:	66 2e 0f 1f 84 00 00 	nop    WORD PTR cs:[rax+rax*1+0x0]
  4005cd:	00 00 00 

00000000004005d0 <frame_dummy>:
  4005d0:	55                   	push   rbp
  4005d1:	48 89 e5             	mov    rbp,rsp
  4005d4:	5d                   	pop    rbp
  4005d5:	eb 89                	jmp    400560 <register_tm_clones>

00000000004005d7 <main>:
  4005d7:	55                   	push   rbp
  4005d8:	48 89 e5             	mov    rbp,rsp
  4005db:	48 83 ec 30          	sub    rsp,0x30
  4005df:	8b 05 2b 0a 20 00    	mov    eax,DWORD PTR [rip+0x200a2b]        # 601010 <count>
  4005e5:	3d 39 05 00 00       	cmp    eax,0x539
  4005ea:	74 0a                	je     4005f6 <main+0x1f>
  4005ec:	bf 01 00 00 00       	mov    edi,0x1
  4005f1:	e8 da fe ff ff       	call   4004d0 <_init+0x30>
  4005f6:	8b 05 14 0a 20 00    	mov    eax,DWORD PTR [rip+0x200a14]        # 601010 <count>
  4005fc:	83 c0 01             	add    eax,0x1
  4005ff:	89 05 0b 0a 20 00    	mov    DWORD PTR [rip+0x200a0b],eax        # 601010 <count>
  400605:	48 8b 05 14 0a 20 00 	mov    rax,QWORD PTR [rip+0x200a14]        # 601020 <__TMC_END__>
  40060c:	b9 00 00 00 00       	mov    ecx,0x0
  400611:	ba 02 00 00 00       	mov    edx,0x2
  400616:	be 00 00 00 00       	mov    esi,0x0
  40061b:	48 89 c7             	mov    rdi,rax
  40061e:	e8 d5 fe ff ff       	call   4004f8 <_init+0x58>
  400623:	bf d7 06 40 00       	mov    edi,0x4006d7
  400628:	e8 ab fe ff ff       	call   4004d8 <_init+0x38>
  40062d:	48 8d 45 d0          	lea    rax,[rbp-0x30]
  400631:	ba 80 00 00 00       	mov    edx,0x80
  400636:	48 89 c6             	mov    rsi,rax
  400639:	bf 00 00 00 00       	mov    edi,0x0
  40063e:	b8 00 00 00 00       	mov    eax,0x0
  400643:	e8 98 fe ff ff       	call   4004e0 <_init+0x40>
  400648:	90                   	nop
  400649:	90                   	nop
  40064a:	c9                   	leave  
  40064b:	c3                   	ret    
  40064c:	0f 1f 40 00          	nop    DWORD PTR [rax+0x0]

0000000000400650 <__libc_csu_init>:
  400650:	41 57                	push   r15
  400652:	41 56                	push   r14
  400654:	41 89 ff             	mov    r15d,edi
  400657:	41 55                	push   r13
  400659:	41 54                	push   r12
  40065b:	4c 8d 25 86 07 20 00 	lea    r12,[rip+0x200786]        # 600de8 <__frame_dummy_init_array_entry>
  400662:	55                   	push   rbp
  400663:	48 8d 2d 86 07 20 00 	lea    rbp,[rip+0x200786]        # 600df0 <__init_array_end>
  40066a:	53                   	push   rbx
  40066b:	49 89 f6             	mov    r14,rsi
  40066e:	49 89 d5             	mov    r13,rdx
  400671:	4c 29 e5             	sub    rbp,r12
  400674:	48 83 ec 08          	sub    rsp,0x8
  400678:	48 c1 fd 03          	sar    rbp,0x3
  40067c:	e8 1f fe ff ff       	call   4004a0 <_init>
  400681:	48 85 ed             	test   rbp,rbp
  400684:	74 20                	je     4006a6 <__libc_csu_init+0x56>
  400686:	31 db                	xor    ebx,ebx
  400688:	0f 1f 84 00 00 00 00 	nop    DWORD PTR [rax+rax*1+0x0]
  40068f:	00 
  400690:	4c 89 ea             	mov    rdx,r13
  400693:	4c 89 f6             	mov    rsi,r14
  400696:	44 89 ff             	mov    edi,r15d
  400699:	41 ff 14 dc          	call   QWORD PTR [r12+rbx*8]
  40069d:	48 83 c3 01          	add    rbx,0x1
  4006a1:	48 39 eb             	cmp    rbx,rbp
  4006a4:	75 ea                	jne    400690 <__libc_csu_init+0x40>
  4006a6:	48 83 c4 08          	add    rsp,0x8
  4006aa:	5b                   	pop    rbx
  4006ab:	5d                   	pop    rbp
  4006ac:	41 5c                	pop    r12
  4006ae:	41 5d                	pop    r13
  4006b0:	41 5e                	pop    r14
  4006b2:	41 5f                	pop    r15
  4006b4:	c3                   	ret    
  4006b5:	90                   	nop
  4006b6:	66 2e 0f 1f 84 00 00 	nop    WORD PTR cs:[rax+rax*1+0x0]
  4006bd:	00 00 00 

00000000004006c0 <__libc_csu_fini>:
  4006c0:	f3 c3                	repz ret 

Disassembly of section .fini:

00000000004006c4 <_fini>:
  4006c4:	48 83 ec 08          	sub    rsp,0x8
  4006c8:	48 83 c4 08          	add    rsp,0x8
  4006cc:	c3                   	ret    
