
secret_of_my_heart：     檔案格式 elf64-x86-64


Disassembly of section .init:

0000000000000968 <.init>:
 968:	48 83 ec 08          	sub    rsp,0x8
 96c:	48 8b 05 3d 16 20 00 	mov    rax,QWORD PTR [rip+0x20163d]        # 201fb0 <_edata@@Base-0x60>
 973:	48 85 c0             	test   rax,rax
 976:	74 05                	je     97d <_edata@@Base-0x201693>
 978:	e8 73 00 00 00       	call   9f0 <_edata@@Base-0x201620>
 97d:	48 83 c4 08          	add    rsp,0x8
 981:	c3                   	ret    

Disassembly of section .plt:

0000000000000990 <.plt>:
 990:	ff 35 a2 15 20 00    	push   QWORD PTR [rip+0x2015a2]        # 201f38 <_edata@@Base-0xd8>
 996:	ff 25 a4 15 20 00    	jmp    QWORD PTR [rip+0x2015a4]        # 201f40 <_edata@@Base-0xd0>
 99c:	0f 1f 40 00          	nop    DWORD PTR [rax+0x0]

Disassembly of section .plt.got:

00000000000009a0 <.plt.got>:
 9a0:	ff 25 a2 15 20 00    	jmp    QWORD PTR [rip+0x2015a2]        # 201f48 <_edata@@Base-0xc8>
 9a6:	66 90                	xchg   ax,ax
 9a8:	ff 25 b2 15 20 00    	jmp    QWORD PTR [rip+0x2015b2]        # 201f60 <_edata@@Base-0xb0>
 9ae:	66 90                	xchg   ax,ax
 9b0:	ff 25 b2 15 20 00    	jmp    QWORD PTR [rip+0x2015b2]        # 201f68 <_edata@@Base-0xa8>
 9b6:	66 90                	xchg   ax,ax
 9b8:	ff 25 ba 15 20 00    	jmp    QWORD PTR [rip+0x2015ba]        # 201f78 <_edata@@Base-0x98>
 9be:	66 90                	xchg   ax,ax
 9c0:	ff 25 ba 15 20 00    	jmp    QWORD PTR [rip+0x2015ba]        # 201f80 <_edata@@Base-0x90>
 9c6:	66 90                	xchg   ax,ax
 9c8:	ff 25 ba 15 20 00    	jmp    QWORD PTR [rip+0x2015ba]        # 201f88 <_edata@@Base-0x88>
 9ce:	66 90                	xchg   ax,ax
 9d0:	ff 25 ba 15 20 00    	jmp    QWORD PTR [rip+0x2015ba]        # 201f90 <_edata@@Base-0x80>
 9d6:	66 90                	xchg   ax,ax
 9d8:	ff 25 ba 15 20 00    	jmp    QWORD PTR [rip+0x2015ba]        # 201f98 <_edata@@Base-0x78>
 9de:	66 90                	xchg   ax,ax
 9e0:	ff 25 ba 15 20 00    	jmp    QWORD PTR [rip+0x2015ba]        # 201fa0 <_edata@@Base-0x70>
 9e6:	66 90                	xchg   ax,ax
 9e8:	ff 25 ba 15 20 00    	jmp    QWORD PTR [rip+0x2015ba]        # 201fa8 <_edata@@Base-0x68>
 9ee:	66 90                	xchg   ax,ax
 9f0:	ff 25 ba 15 20 00    	jmp    QWORD PTR [rip+0x2015ba]        # 201fb0 <_edata@@Base-0x60>
 9f6:	66 90                	xchg   ax,ax
 9f8:	ff 25 ba 15 20 00    	jmp    QWORD PTR [rip+0x2015ba]        # 201fb8 <_edata@@Base-0x58>
 9fe:	66 90                	xchg   ax,ax
 a00:	ff 25 ba 15 20 00    	jmp    QWORD PTR [rip+0x2015ba]        # 201fc0 <_edata@@Base-0x50>
 a06:	66 90                	xchg   ax,ax
 a08:	ff 25 ba 15 20 00    	jmp    QWORD PTR [rip+0x2015ba]        # 201fc8 <_edata@@Base-0x48>
 a0e:	66 90                	xchg   ax,ax
 a10:	ff 25 c2 15 20 00    	jmp    QWORD PTR [rip+0x2015c2]        # 201fd8 <_edata@@Base-0x38>
 a16:	66 90                	xchg   ax,ax
 a18:	ff 25 c2 15 20 00    	jmp    QWORD PTR [rip+0x2015c2]        # 201fe0 <_edata@@Base-0x30>
 a1e:	66 90                	xchg   ax,ax
 a20:	ff 25 ca 15 20 00    	jmp    QWORD PTR [rip+0x2015ca]        # 201ff0 <_edata@@Base-0x20>
 a26:	66 90                	xchg   ax,ax
 a28:	ff 25 ca 15 20 00    	jmp    QWORD PTR [rip+0x2015ca]        # 201ff8 <_edata@@Base-0x18>
 a2e:	66 90                	xchg   ax,ax

Disassembly of section .text:

0000000000000a30 <.text>:
     a30:	31 ed                	xor    ebp,ebp
     a32:	49 89 d1             	mov    r9,rdx
     a35:	5e                   	pop    rsi
     a36:	48 89 e2             	mov    rdx,rsp
     a39:	48 83 e4 f0          	and    rsp,0xfffffffffffffff0
     a3d:	50                   	push   rax
     a3e:	54                   	push   rsp
     a3f:	4c 8d 05 5a 08 00 00 	lea    r8,[rip+0x85a]        # 12a0 <_edata@@Base-0x200d70>
     a46:	48 8d 0d e3 07 00 00 	lea    rcx,[rip+0x7e3]        # 1230 <_edata@@Base-0x200de0>
     a4d:	48 8d 3d 3b 07 00 00 	lea    rdi,[rip+0x73b]        # 118f <_edata@@Base-0x200e81>
     a54:	e8 87 ff ff ff       	call   9e0 <_edata@@Base-0x201630>
     a59:	f4                   	hlt    
     a5a:	66 0f 1f 44 00 00    	nop    WORD PTR [rax+rax*1+0x0]
     a60:	48 8d 3d a9 15 20 00 	lea    rdi,[rip+0x2015a9]        # 202010 <_edata@@Base>
     a67:	48 8d 05 a9 15 20 00 	lea    rax,[rip+0x2015a9]        # 202017 <_edata@@Base+0x7>
     a6e:	55                   	push   rbp
     a6f:	48 29 f8             	sub    rax,rdi
     a72:	48 89 e5             	mov    rbp,rsp
     a75:	48 83 f8 0e          	cmp    rax,0xe
     a79:	76 15                	jbe    a90 <_edata@@Base-0x201580>
     a7b:	48 8b 05 ce 14 20 00 	mov    rax,QWORD PTR [rip+0x2014ce]        # 201f50 <_edata@@Base-0xc0>
     a82:	48 85 c0             	test   rax,rax
     a85:	74 09                	je     a90 <_edata@@Base-0x201580>
     a87:	5d                   	pop    rbp
     a88:	ff e0                	jmp    rax
     a8a:	66 0f 1f 44 00 00    	nop    WORD PTR [rax+rax*1+0x0]
     a90:	5d                   	pop    rbp
     a91:	c3                   	ret    
     a92:	0f 1f 40 00          	nop    DWORD PTR [rax+0x0]
     a96:	66 2e 0f 1f 84 00 00 	nop    WORD PTR cs:[rax+rax*1+0x0]
     a9d:	00 00 00 
     aa0:	48 8d 3d 69 15 20 00 	lea    rdi,[rip+0x201569]        # 202010 <_edata@@Base>
     aa7:	48 8d 35 62 15 20 00 	lea    rsi,[rip+0x201562]        # 202010 <_edata@@Base>
     aae:	55                   	push   rbp
     aaf:	48 29 fe             	sub    rsi,rdi
     ab2:	48 89 e5             	mov    rbp,rsp
     ab5:	48 c1 fe 03          	sar    rsi,0x3
     ab9:	48 89 f0             	mov    rax,rsi
     abc:	48 c1 e8 3f          	shr    rax,0x3f
     ac0:	48 01 c6             	add    rsi,rax
     ac3:	48 d1 fe             	sar    rsi,1
     ac6:	74 18                	je     ae0 <_edata@@Base-0x201530>
     ac8:	48 8b 05 19 15 20 00 	mov    rax,QWORD PTR [rip+0x201519]        # 201fe8 <_edata@@Base-0x28>
     acf:	48 85 c0             	test   rax,rax
     ad2:	74 0c                	je     ae0 <_edata@@Base-0x201530>
     ad4:	5d                   	pop    rbp
     ad5:	ff e0                	jmp    rax
     ad7:	66 0f 1f 84 00 00 00 	nop    WORD PTR [rax+rax*1+0x0]
     ade:	00 00 
     ae0:	5d                   	pop    rbp
     ae1:	c3                   	ret    
     ae2:	0f 1f 40 00          	nop    DWORD PTR [rax+0x0]
     ae6:	66 2e 0f 1f 84 00 00 	nop    WORD PTR cs:[rax+rax*1+0x0]
     aed:	00 00 00 
     af0:	80 3d 19 15 20 00 00 	cmp    BYTE PTR [rip+0x201519],0x0        # 202010 <_edata@@Base>
     af7:	75 27                	jne    b20 <_edata@@Base-0x2014f0>
     af9:	48 83 3d ef 14 20 00 	cmp    QWORD PTR [rip+0x2014ef],0x0        # 201ff0 <_edata@@Base-0x20>
     b00:	00 
     b01:	55                   	push   rbp
     b02:	48 89 e5             	mov    rbp,rsp
     b05:	74 0c                	je     b13 <_edata@@Base-0x2014fd>
     b07:	48 8b 3d fa 14 20 00 	mov    rdi,QWORD PTR [rip+0x2014fa]        # 202008 <_edata@@Base-0x8>
     b0e:	e8 0d ff ff ff       	call   a20 <_edata@@Base-0x2015f0>
     b13:	e8 48 ff ff ff       	call   a60 <_edata@@Base-0x2015b0>
     b18:	5d                   	pop    rbp
     b19:	c6 05 f0 14 20 00 01 	mov    BYTE PTR [rip+0x2014f0],0x1        # 202010 <_edata@@Base>
     b20:	f3 c3                	repz ret 
     b22:	0f 1f 40 00          	nop    DWORD PTR [rax+0x0]
     b26:	66 2e 0f 1f 84 00 00 	nop    WORD PTR cs:[rax+rax*1+0x0]
     b2d:	00 00 00 
     b30:	48 8d 3d 31 12 20 00 	lea    rdi,[rip+0x201231]        # 201d68 <_edata@@Base-0x2a8>
     b37:	48 83 3f 00          	cmp    QWORD PTR [rdi],0x0
     b3b:	75 0b                	jne    b48 <_edata@@Base-0x2014c8>
     b3d:	e9 5e ff ff ff       	jmp    aa0 <_edata@@Base-0x201570>
     b42:	66 0f 1f 44 00 00    	nop    WORD PTR [rax+rax*1+0x0]
     b48:	48 8b 05 81 14 20 00 	mov    rax,QWORD PTR [rip+0x201481]        # 201fd0 <_edata@@Base-0x40>
     b4f:	48 85 c0             	test   rax,rax
     b52:	74 e9                	je     b3d <_edata@@Base-0x2014d3>
     b54:	55                   	push   rbp
     b55:	48 89 e5             	mov    rbp,rsp
     b58:	ff d0                	call   rax
     b5a:	5d                   	pop    rbp
     b5b:	e9 40 ff ff ff       	jmp    aa0 <_edata@@Base-0x201570>
     b60:	55                   	push   rbp
     b61:	48 89 e5             	mov    rbp,rsp
     b64:	48 83 ec 10          	sub    rsp,0x10
     b68:	c7 45 fc 00 00 00 00 	mov    DWORD PTR [rbp-0x4],0x0
     b6f:	48 8b 05 e2 13 20 00 	mov    rax,QWORD PTR [rip+0x2013e2]        # 201f58 <_edata@@Base-0xb8>
     b76:	48 8b 00             	mov    rax,QWORD PTR [rax]
     b79:	b9 00 00 00 00       	mov    ecx,0x0
     b7e:	ba 02 00 00 00       	mov    edx,0x2
     b83:	be 00 00 00 00       	mov    esi,0x0
     b88:	48 89 c7             	mov    rdi,rax
     b8b:	e8 78 fe ff ff       	call   a08 <_edata@@Base-0x201608>
     b90:	48 8b 05 d9 13 20 00 	mov    rax,QWORD PTR [rip+0x2013d9]        # 201f70 <_edata@@Base-0xa0>
     b97:	48 8b 00             	mov    rax,QWORD PTR [rax]
     b9a:	b9 00 00 00 00       	mov    ecx,0x0
     b9f:	ba 02 00 00 00       	mov    edx,0x2
     ba4:	be 00 00 00 00       	mov    esi,0x0
     ba9:	48 89 c7             	mov    rdi,rax
     bac:	e8 57 fe ff ff       	call   a08 <_edata@@Base-0x201608>
     bb1:	bf 00 00 00 00       	mov    edi,0x0
     bb6:	e8 3d fe ff ff       	call   9f8 <_edata@@Base-0x201618>
     bbb:	89 c7                	mov    edi,eax
     bbd:	e8 26 fe ff ff       	call   9e8 <_edata@@Base-0x201628>
     bc2:	eb 0d                	jmp    bd1 <_edata@@Base-0x20143f>
     bc4:	e8 5f fe ff ff       	call   a28 <_edata@@Base-0x2015e8>
     bc9:	25 00 f0 ff ff       	and    eax,0xfffff000
     bce:	89 45 fc             	mov    DWORD PTR [rbp-0x4],eax
     bd1:	81 7d fc 00 00 01 00 	cmp    DWORD PTR [rbp-0x4],0x10000
     bd8:	7e ea                	jle    bc4 <_edata@@Base-0x20144c>
     bda:	8b 45 fc             	mov    eax,DWORD PTR [rbp-0x4]
     bdd:	48 98                	cdqe   
     bdf:	41 b9 00 00 00 00    	mov    r9d,0x0
     be5:	41 b8 ff ff ff ff    	mov    r8d,0xffffffff
     beb:	b9 22 00 00 00       	mov    ecx,0x22
     bf0:	ba 03 00 00 00       	mov    edx,0x3
     bf5:	be 00 10 00 00       	mov    esi,0x1000
     bfa:	48 89 c7             	mov    rdi,rax
     bfd:	e8 be fd ff ff       	call   9c0 <_edata@@Base-0x201650>
     c02:	48 89 c2             	mov    rdx,rax
     c05:	48 8d 05 0c 14 20 00 	lea    rax,[rip+0x20140c]        # 202018 <_edata@@Base+0x8>
     c0c:	48 89 10             	mov    QWORD PTR [rax],rdx
     c0f:	48 8d 05 02 14 20 00 	lea    rax,[rip+0x201402]        # 202018 <_edata@@Base+0x8>
     c16:	48 8b 00             	mov    rax,QWORD PTR [rax]
     c19:	48 83 f8 ff          	cmp    rax,0xffffffffffffffff
     c1d:	75 16                	jne    c35 <_edata@@Base-0x2013db>
     c1f:	48 8d 3d 92 06 00 00 	lea    rdi,[rip+0x692]        # 12b8 <_edata@@Base-0x200d58>
     c26:	e8 85 fd ff ff       	call   9b0 <_edata@@Base-0x201660>
     c2b:	bf 00 00 00 00       	mov    edi,0x0
     c30:	e8 e3 fd ff ff       	call   a18 <_edata@@Base-0x2015f8>
     c35:	90                   	nop
     c36:	c9                   	leave  
     c37:	c3                   	ret    
     c38:	55                   	push   rbp
     c39:	48 89 e5             	mov    rbp,rsp
     c3c:	48 83 ec 20          	sub    rsp,0x20
     c40:	48 89 7d e8          	mov    QWORD PTR [rbp-0x18],rdi
     c44:	89 75 e4             	mov    DWORD PTR [rbp-0x1c],esi
     c47:	8b 55 e4             	mov    edx,DWORD PTR [rbp-0x1c]
     c4a:	48 8b 45 e8          	mov    rax,QWORD PTR [rbp-0x18]
     c4e:	48 89 c6             	mov    rsi,rax
     c51:	bf 00 00 00 00       	mov    edi,0x0
     c56:	e8 7d fd ff ff       	call   9d8 <_edata@@Base-0x201638>
     c5b:	89 45 fc             	mov    DWORD PTR [rbp-0x4],eax
     c5e:	83 7d fc 00          	cmp    DWORD PTR [rbp-0x4],0x0
     c62:	7f 16                	jg     c7a <_edata@@Base-0x201396>
     c64:	48 8d 3d 58 06 00 00 	lea    rdi,[rip+0x658]        # 12c3 <_edata@@Base-0x200d4d>
     c6b:	e8 40 fd ff ff       	call   9b0 <_edata@@Base-0x201660>
     c70:	bf 01 00 00 00       	mov    edi,0x1
     c75:	e8 9e fd ff ff       	call   a18 <_edata@@Base-0x2015f8>
     c7a:	8b 45 fc             	mov    eax,DWORD PTR [rbp-0x4]
     c7d:	48 98                	cdqe   
     c7f:	48 8d 50 ff          	lea    rdx,[rax-0x1]
     c83:	48 8b 45 e8          	mov    rax,QWORD PTR [rbp-0x18]
     c87:	48 01 d0             	add    rax,rdx
     c8a:	0f b6 00             	movzx  eax,BYTE PTR [rax]
     c8d:	3c 0a                	cmp    al,0xa
     c8f:	75 13                	jne    ca4 <_edata@@Base-0x20136c>
     c91:	8b 45 fc             	mov    eax,DWORD PTR [rbp-0x4]
     c94:	48 98                	cdqe   
     c96:	48 8d 50 ff          	lea    rdx,[rax-0x1]
     c9a:	48 8b 45 e8          	mov    rax,QWORD PTR [rbp-0x18]
     c9e:	48 01 d0             	add    rax,rdx
     ca1:	c6 00 00             	mov    BYTE PTR [rax],0x0
     ca4:	8b 45 fc             	mov    eax,DWORD PTR [rbp-0x4]
     ca7:	c9                   	leave  
     ca8:	c3                   	ret    
     ca9:	55                   	push   rbp
     caa:	48 89 e5             	mov    rbp,rsp
     cad:	48 83 ec 30          	sub    rsp,0x30
     cb1:	64 48 8b 04 25 28 00 	mov    rax,QWORD PTR fs:0x28
     cb8:	00 00 
     cba:	48 89 45 f8          	mov    QWORD PTR [rbp-0x8],rax
     cbe:	31 c0                	xor    eax,eax
     cc0:	48 8d 45 e0          	lea    rax,[rbp-0x20]
     cc4:	b9 0f 00 00 00       	mov    ecx,0xf
     cc9:	ba 0f 00 00 00       	mov    edx,0xf
     cce:	48 89 c6             	mov    rsi,rax
     cd1:	bf 00 00 00 00       	mov    edi,0x0
     cd6:	b8 00 00 00 00       	mov    eax,0x0
     cdb:	e8 c8 fc ff ff       	call   9a8 <_edata@@Base-0x201668>
     ce0:	89 45 d8             	mov    DWORD PTR [rbp-0x28],eax
     ce3:	83 7d d8 00          	cmp    DWORD PTR [rbp-0x28],0x0
     ce7:	7f 16                	jg     cff <_edata@@Base-0x201311>
     ce9:	48 8d 3d d3 05 00 00 	lea    rdi,[rip+0x5d3]        # 12c3 <_edata@@Base-0x200d4d>
     cf0:	e8 bb fc ff ff       	call   9b0 <_edata@@Base-0x201660>
     cf5:	bf 01 00 00 00       	mov    edi,0x1
     cfa:	e8 19 fd ff ff       	call   a18 <_edata@@Base-0x2015f8>
     cff:	48 8d 45 e0          	lea    rax,[rbp-0x20]
     d03:	48 89 c7             	mov    rdi,rax
     d06:	e8 05 fd ff ff       	call   a10 <_edata@@Base-0x201600>
     d0b:	89 45 dc             	mov    DWORD PTR [rbp-0x24],eax
     d0e:	8b 45 dc             	mov    eax,DWORD PTR [rbp-0x24]
     d11:	48 8b 55 f8          	mov    rdx,QWORD PTR [rbp-0x8]
     d15:	64 48 33 14 25 28 00 	xor    rdx,QWORD PTR fs:0x28
     d1c:	00 00 
     d1e:	74 05                	je     d25 <_edata@@Base-0x2012eb>
     d20:	e8 93 fc ff ff       	call   9b8 <_edata@@Base-0x201658>
     d25:	c9                   	leave  
     d26:	c3                   	ret    
     d27:	55                   	push   rbp
     d28:	48 89 e5             	mov    rbp,rsp
     d2b:	48 83 ec 20          	sub    rsp,0x20
     d2f:	48 89 7d e8          	mov    QWORD PTR [rbp-0x18],rdi
     d33:	48 89 75 e0          	mov    QWORD PTR [rbp-0x20],rsi
     d37:	48 8b 45 e8          	mov    rax,QWORD PTR [rbp-0x18]
     d3b:	48 8b 55 e0          	mov    rdx,QWORD PTR [rbp-0x20]
     d3f:	48 89 10             	mov    QWORD PTR [rax],rdx
     d42:	48 8d 3d 85 05 00 00 	lea    rdi,[rip+0x585]        # 12ce <_edata@@Base-0x200d42>
     d49:	b8 00 00 00 00       	mov    eax,0x0
     d4e:	e8 75 fc ff ff       	call   9c8 <_edata@@Base-0x201648>
     d53:	48 8b 45 e8          	mov    rax,QWORD PTR [rbp-0x18]
     d57:	48 83 c0 08          	add    rax,0x8
     d5b:	be 20 00 00 00       	mov    esi,0x20
     d60:	48 89 c7             	mov    rdi,rax
     d63:	e8 d0 fe ff ff       	call   c38 <_edata@@Base-0x2013d8>
     d68:	48 8b 45 e0          	mov    rax,QWORD PTR [rbp-0x20]
     d6c:	48 89 c7             	mov    rdi,rax
     d6f:	e8 8c fc ff ff       	call   a00 <_edata@@Base-0x201610>
     d74:	48 89 c2             	mov    rdx,rax
     d77:	48 8b 45 e8          	mov    rax,QWORD PTR [rbp-0x18]
     d7b:	48 89 50 28          	mov    QWORD PTR [rax+0x28],rdx
     d7f:	48 8b 45 e8          	mov    rax,QWORD PTR [rbp-0x18]
     d83:	48 8b 40 28          	mov    rax,QWORD PTR [rax+0x28]
     d87:	48 85 c0             	test   rax,rax
     d8a:	75 16                	jne    da2 <_edata@@Base-0x20126e>
     d8c:	48 8d 3d 4b 05 00 00 	lea    rdi,[rip+0x54b]        # 12de <_edata@@Base-0x200d32>
     d93:	e8 18 fc ff ff       	call   9b0 <_edata@@Base-0x201660>
     d98:	bf 00 00 00 00       	mov    edi,0x0
     d9d:	e8 76 fc ff ff       	call   a18 <_edata@@Base-0x2015f8>
     da2:	48 8d 3d 46 05 00 00 	lea    rdi,[rip+0x546]        # 12ef <_edata@@Base-0x200d21>
     da9:	b8 00 00 00 00       	mov    eax,0x0
     dae:	e8 15 fc ff ff       	call   9c8 <_edata@@Base-0x201648>
     db3:	48 8b 45 e0          	mov    rax,QWORD PTR [rbp-0x20]
     db7:	89 c2                	mov    edx,eax
     db9:	48 8b 45 e8          	mov    rax,QWORD PTR [rbp-0x18]
     dbd:	48 8b 40 28          	mov    rax,QWORD PTR [rax+0x28]
     dc1:	89 d6                	mov    esi,edx
     dc3:	48 89 c7             	mov    rdi,rax
     dc6:	e8 6d fe ff ff       	call   c38 <_edata@@Base-0x2013d8>
     dcb:	89 45 fc             	mov    DWORD PTR [rbp-0x4],eax
     dce:	48 8b 45 e8          	mov    rax,QWORD PTR [rbp-0x18]
     dd2:	48 8b 50 28          	mov    rdx,QWORD PTR [rax+0x28]
     dd6:	8b 45 fc             	mov    eax,DWORD PTR [rbp-0x4]
     dd9:	48 98                	cdqe   
     ddb:	48 01 d0             	add    rax,rdx
     dde:	c6 00 00             	mov    BYTE PTR [rax],0x0
     de1:	90                   	nop
     de2:	c9                   	leave  
     de3:	c3                   	ret    
     de4:	55                   	push   rbp
     de5:	48 89 e5             	mov    rbp,rsp
     de8:	48 83 ec 10          	sub    rsp,0x10
     dec:	48 89 7d f8          	mov    QWORD PTR [rbp-0x8],rdi
     df0:	48 8b 45 f8          	mov    rax,QWORD PTR [rbp-0x8]
     df4:	48 c7 00 00 00 00 00 	mov    QWORD PTR [rax],0x0
     dfb:	48 8b 45 f8          	mov    rax,QWORD PTR [rbp-0x8]
     dff:	48 83 c0 08          	add    rax,0x8
     e03:	ba 20 00 00 00       	mov    edx,0x20
     e08:	be 00 00 00 00       	mov    esi,0x0
     e0d:	48 89 c7             	mov    rdi,rax
     e10:	e8 bb fb ff ff       	call   9d0 <_edata@@Base-0x201640>
     e15:	48 8b 45 f8          	mov    rax,QWORD PTR [rbp-0x8]
     e19:	48 8b 40 28          	mov    rax,QWORD PTR [rax+0x28]
     e1d:	48 89 c7             	mov    rdi,rax
     e20:	e8 7b fb ff ff       	call   9a0 <_edata@@Base-0x201670>
     e25:	48 8b 45 f8          	mov    rax,QWORD PTR [rbp-0x8]
     e29:	48 c7 40 28 00 00 00 	mov    QWORD PTR [rax+0x28],0x0
     e30:	00 
     e31:	90                   	nop
     e32:	c9                   	leave  
     e33:	c3                   	ret    
     e34:	55                   	push   rbp
     e35:	48 89 e5             	mov    rbp,rsp
     e38:	48 8d 05 d9 11 20 00 	lea    rax,[rip+0x2011d9]        # 202018 <_edata@@Base+0x8>
     e3f:	48 8b 00             	mov    rax,QWORD PTR [rax]
     e42:	48 89 c6             	mov    rsi,rax
     e45:	48 8d 3d b8 04 00 00 	lea    rdi,[rip+0x4b8]        # 1304 <_edata@@Base-0x200d0c>
     e4c:	b8 00 00 00 00       	mov    eax,0x0
     e51:	e8 72 fb ff ff       	call   9c8 <_edata@@Base-0x201648>
     e56:	48 8d 3d b9 04 00 00 	lea    rdi,[rip+0x4b9]        # 1316 <_edata@@Base-0x200cfa>
     e5d:	e8 4e fb ff ff       	call   9b0 <_edata@@Base-0x201660>
     e62:	bf 00 00 00 00       	mov    edi,0x0
     e67:	e8 ac fb ff ff       	call   a18 <_edata@@Base-0x2015f8>
     e6c:	55                   	push   rbp
     e6d:	48 89 e5             	mov    rbp,rsp
     e70:	48 83 ec 10          	sub    rsp,0x10
     e74:	c7 45 f4 00 00 00 00 	mov    DWORD PTR [rbp-0xc],0x0
     e7b:	e9 a4 00 00 00       	jmp    f24 <_edata@@Base-0x2010ec>
     e80:	48 8d 05 91 11 20 00 	lea    rax,[rip+0x201191]        # 202018 <_edata@@Base+0x8>
     e87:	48 8b 08             	mov    rcx,QWORD PTR [rax]
     e8a:	8b 45 f4             	mov    eax,DWORD PTR [rbp-0xc]
     e8d:	48 63 d0             	movsxd rdx,eax
     e90:	48 89 d0             	mov    rax,rdx
     e93:	48 01 c0             	add    rax,rax
     e96:	48 01 d0             	add    rax,rdx
     e99:	48 c1 e0 04          	shl    rax,0x4
     e9d:	48 01 c8             	add    rax,rcx
     ea0:	48 8b 40 28          	mov    rax,QWORD PTR [rax+0x28]
     ea4:	48 85 c0             	test   rax,rax
     ea7:	75 77                	jne    f20 <_edata@@Base-0x2010f0>
     ea9:	48 8d 3d 71 04 00 00 	lea    rdi,[rip+0x471]        # 1321 <_edata@@Base-0x200cef>
     eb0:	b8 00 00 00 00       	mov    eax,0x0
     eb5:	e8 0e fb ff ff       	call   9c8 <_edata@@Base-0x201648>
     eba:	b8 00 00 00 00       	mov    eax,0x0
     ebf:	e8 e5 fd ff ff       	call   ca9 <_edata@@Base-0x201367>
     ec4:	48 98                	cdqe   
     ec6:	48 89 45 f8          	mov    QWORD PTR [rbp-0x8],rax
     eca:	48 81 7d f8 00 01 00 	cmp    QWORD PTR [rbp-0x8],0x100
     ed1:	00 
     ed2:	76 0e                	jbe    ee2 <_edata@@Base-0x20112e>
     ed4:	48 8d 3d 57 04 00 00 	lea    rdi,[rip+0x457]        # 1332 <_edata@@Base-0x200cde>
     edb:	e8 d0 fa ff ff       	call   9b0 <_edata@@Base-0x201660>
     ee0:	eb 58                	jmp    f3a <_edata@@Base-0x2010d6>
     ee2:	48 8d 05 2f 11 20 00 	lea    rax,[rip+0x20112f]        # 202018 <_edata@@Base+0x8>
     ee9:	48 8b 08             	mov    rcx,QWORD PTR [rax]
     eec:	8b 45 f4             	mov    eax,DWORD PTR [rbp-0xc]
     eef:	48 63 d0             	movsxd rdx,eax
     ef2:	48 89 d0             	mov    rax,rdx
     ef5:	48 01 c0             	add    rax,rax
     ef8:	48 01 d0             	add    rax,rdx
     efb:	48 c1 e0 04          	shl    rax,0x4
     eff:	48 8d 14 01          	lea    rdx,[rcx+rax*1]
     f03:	48 8b 45 f8          	mov    rax,QWORD PTR [rbp-0x8]
     f07:	48 89 c6             	mov    rsi,rax
     f0a:	48 89 d7             	mov    rdi,rdx
     f0d:	e8 15 fe ff ff       	call   d27 <_edata@@Base-0x2012e9>
     f12:	48 8d 3d 23 04 00 00 	lea    rdi,[rip+0x423]        # 133c <_edata@@Base-0x200cd4>
     f19:	e8 92 fa ff ff       	call   9b0 <_edata@@Base-0x201660>
     f1e:	eb 1a                	jmp    f3a <_edata@@Base-0x2010d6>
     f20:	83 45 f4 01          	add    DWORD PTR [rbp-0xc],0x1
     f24:	83 7d f4 63          	cmp    DWORD PTR [rbp-0xc],0x63
     f28:	0f 8e 52 ff ff ff    	jle    e80 <_edata@@Base-0x201190>
     f2e:	48 8d 3d 0e 04 00 00 	lea    rdi,[rip+0x40e]        # 1343 <_edata@@Base-0x200ccd>
     f35:	e8 76 fa ff ff       	call   9b0 <_edata@@Base-0x201660>
     f3a:	c9                   	leave  
     f3b:	c3                   	ret    
     f3c:	55                   	push   rbp
     f3d:	48 89 e5             	mov    rbp,rsp
     f40:	48 83 ec 10          	sub    rsp,0x10
     f44:	48 8d 3d 02 04 00 00 	lea    rdi,[rip+0x402]        # 134d <_edata@@Base-0x200cc3>
     f4b:	b8 00 00 00 00       	mov    eax,0x0
     f50:	e8 73 fa ff ff       	call   9c8 <_edata@@Base-0x201648>
     f55:	b8 00 00 00 00       	mov    eax,0x0
     f5a:	e8 4a fd ff ff       	call   ca9 <_edata@@Base-0x201367>
     f5f:	89 45 fc             	mov    DWORD PTR [rbp-0x4],eax
     f62:	83 7d fc 63          	cmp    DWORD PTR [rbp-0x4],0x63
     f66:	76 16                	jbe    f7e <_edata@@Base-0x201092>
     f68:	48 8d 3d e6 03 00 00 	lea    rdi,[rip+0x3e6]        # 1355 <_edata@@Base-0x200cbb>
     f6f:	e8 3c fa ff ff       	call   9b0 <_edata@@Base-0x201660>
     f74:	bf fe ff ff ff       	mov    edi,0xfffffffe
     f79:	e8 9a fa ff ff       	call   a18 <_edata@@Base-0x2015f8>
     f7e:	48 8d 05 93 10 20 00 	lea    rax,[rip+0x201093]        # 202018 <_edata@@Base+0x8>
     f85:	48 8b 08             	mov    rcx,QWORD PTR [rax]
     f88:	8b 55 fc             	mov    edx,DWORD PTR [rbp-0x4]
     f8b:	48 89 d0             	mov    rax,rdx
     f8e:	48 01 c0             	add    rax,rax
     f91:	48 01 d0             	add    rax,rdx
     f94:	48 c1 e0 04          	shl    rax,0x4
     f98:	48 01 c8             	add    rax,rcx
     f9b:	48 8b 40 28          	mov    rax,QWORD PTR [rax+0x28]
     f9f:	48 85 c0             	test   rax,rax
     fa2:	0f 84 b6 00 00 00    	je     105e <_edata@@Base-0x200fb2>
     fa8:	8b 45 fc             	mov    eax,DWORD PTR [rbp-0x4]
     fab:	89 c6                	mov    esi,eax
     fad:	48 8d 3d b0 03 00 00 	lea    rdi,[rip+0x3b0]        # 1364 <_edata@@Base-0x200cac>
     fb4:	b8 00 00 00 00       	mov    eax,0x0
     fb9:	e8 0a fa ff ff       	call   9c8 <_edata@@Base-0x201648>
     fbe:	48 8d 05 53 10 20 00 	lea    rax,[rip+0x201053]        # 202018 <_edata@@Base+0x8>
     fc5:	48 8b 08             	mov    rcx,QWORD PTR [rax]
     fc8:	8b 55 fc             	mov    edx,DWORD PTR [rbp-0x4]
     fcb:	48 89 d0             	mov    rax,rdx
     fce:	48 01 c0             	add    rax,rax
     fd1:	48 01 d0             	add    rax,rdx
     fd4:	48 c1 e0 04          	shl    rax,0x4
     fd8:	48 01 c8             	add    rax,rcx
     fdb:	48 8b 00             	mov    rax,QWORD PTR [rax]
     fde:	48 89 c6             	mov    rsi,rax
     fe1:	48 8d 3d 88 03 00 00 	lea    rdi,[rip+0x388]        # 1370 <_edata@@Base-0x200ca0>
     fe8:	b8 00 00 00 00       	mov    eax,0x0
     fed:	e8 d6 f9 ff ff       	call   9c8 <_edata@@Base-0x201648>
     ff2:	48 8d 05 1f 10 20 00 	lea    rax,[rip+0x20101f]        # 202018 <_edata@@Base+0x8>
     ff9:	48 8b 08             	mov    rcx,QWORD PTR [rax]
     ffc:	8b 55 fc             	mov    edx,DWORD PTR [rbp-0x4]
     fff:	48 89 d0             	mov    rax,rdx
    1002:	48 01 c0             	add    rax,rax
    1005:	48 01 d0             	add    rax,rdx
    1008:	48 c1 e0 04          	shl    rax,0x4
    100c:	48 01 c8             	add    rax,rcx
    100f:	48 83 c0 08          	add    rax,0x8
    1013:	48 89 c6             	mov    rsi,rax
    1016:	48 8d 3d 5f 03 00 00 	lea    rdi,[rip+0x35f]        # 137c <_edata@@Base-0x200c94>
    101d:	b8 00 00 00 00       	mov    eax,0x0
    1022:	e8 a1 f9 ff ff       	call   9c8 <_edata@@Base-0x201648>
    1027:	48 8d 05 ea 0f 20 00 	lea    rax,[rip+0x200fea]        # 202018 <_edata@@Base+0x8>
    102e:	48 8b 08             	mov    rcx,QWORD PTR [rax]
    1031:	8b 55 fc             	mov    edx,DWORD PTR [rbp-0x4]
    1034:	48 89 d0             	mov    rax,rdx
    1037:	48 01 c0             	add    rax,rax
    103a:	48 01 d0             	add    rax,rdx
    103d:	48 c1 e0 04          	shl    rax,0x4
    1041:	48 01 c8             	add    rax,rcx
    1044:	48 8b 40 28          	mov    rax,QWORD PTR [rax+0x28]
    1048:	48 89 c6             	mov    rsi,rax
    104b:	48 8d 3d 35 03 00 00 	lea    rdi,[rip+0x335]        # 1387 <_edata@@Base-0x200c89>
    1052:	b8 00 00 00 00       	mov    eax,0x0
    1057:	e8 6c f9 ff ff       	call   9c8 <_edata@@Base-0x201648>
    105c:	eb 0c                	jmp    106a <_edata@@Base-0x200fa6>
    105e:	48 8d 3d 2f 03 00 00 	lea    rdi,[rip+0x32f]        # 1394 <_edata@@Base-0x200c7c>
    1065:	e8 46 f9 ff ff       	call   9b0 <_edata@@Base-0x201660>
    106a:	90                   	nop
    106b:	c9                   	leave  
    106c:	c3                   	ret    
    106d:	55                   	push   rbp
    106e:	48 89 e5             	mov    rbp,rsp
    1071:	48 83 ec 10          	sub    rsp,0x10
    1075:	48 8d 3d d1 02 00 00 	lea    rdi,[rip+0x2d1]        # 134d <_edata@@Base-0x200cc3>
    107c:	b8 00 00 00 00       	mov    eax,0x0
    1081:	e8 42 f9 ff ff       	call   9c8 <_edata@@Base-0x201648>
    1086:	b8 00 00 00 00       	mov    eax,0x0
    108b:	e8 19 fc ff ff       	call   ca9 <_edata@@Base-0x201367>
    1090:	89 45 fc             	mov    DWORD PTR [rbp-0x4],eax
    1093:	83 7d fc 63          	cmp    DWORD PTR [rbp-0x4],0x63
    1097:	76 16                	jbe    10af <_edata@@Base-0x200f61>
    1099:	48 8d 3d b5 02 00 00 	lea    rdi,[rip+0x2b5]        # 1355 <_edata@@Base-0x200cbb>
    10a0:	e8 0b f9 ff ff       	call   9b0 <_edata@@Base-0x201660>
    10a5:	bf fe ff ff ff       	mov    edi,0xfffffffe
    10aa:	e8 69 f9 ff ff       	call   a18 <_edata@@Base-0x2015f8>
    10af:	48 8d 05 62 0f 20 00 	lea    rax,[rip+0x200f62]        # 202018 <_edata@@Base+0x8>
    10b6:	48 8b 08             	mov    rcx,QWORD PTR [rax]
    10b9:	8b 55 fc             	mov    edx,DWORD PTR [rbp-0x4]
    10bc:	48 89 d0             	mov    rax,rdx
    10bf:	48 01 c0             	add    rax,rax
    10c2:	48 01 d0             	add    rax,rdx
    10c5:	48 c1 e0 04          	shl    rax,0x4
    10c9:	48 01 c8             	add    rax,rcx
    10cc:	48 8b 40 28          	mov    rax,QWORD PTR [rax+0x28]
    10d0:	48 85 c0             	test   rax,rax
    10d3:	74 33                	je     1108 <_edata@@Base-0x200f08>
    10d5:	48 8d 05 3c 0f 20 00 	lea    rax,[rip+0x200f3c]        # 202018 <_edata@@Base+0x8>
    10dc:	48 8b 08             	mov    rcx,QWORD PTR [rax]
    10df:	8b 55 fc             	mov    edx,DWORD PTR [rbp-0x4]
    10e2:	48 89 d0             	mov    rax,rdx
    10e5:	48 01 c0             	add    rax,rax
    10e8:	48 01 d0             	add    rax,rdx
    10eb:	48 c1 e0 04          	shl    rax,0x4
    10ef:	48 01 c8             	add    rax,rcx
    10f2:	48 89 c7             	mov    rdi,rax
    10f5:	e8 ea fc ff ff       	call   de4 <_edata@@Base-0x20122c>
    10fa:	48 8d 3d 3b 02 00 00 	lea    rdi,[rip+0x23b]        # 133c <_edata@@Base-0x200cd4>
    1101:	e8 aa f8 ff ff       	call   9b0 <_edata@@Base-0x201660>
    1106:	eb 0c                	jmp    1114 <_edata@@Base-0x200efc>
    1108:	48 8d 3d 85 02 00 00 	lea    rdi,[rip+0x285]        # 1394 <_edata@@Base-0x200c7c>
    110f:	e8 9c f8 ff ff       	call   9b0 <_edata@@Base-0x201660>
    1114:	90                   	nop
    1115:	c9                   	leave  
    1116:	c3                   	ret    
    1117:	55                   	push   rbp
    1118:	48 89 e5             	mov    rbp,rsp
    111b:	48 8d 3d 86 02 00 00 	lea    rdi,[rip+0x286]        # 13a8 <_edata@@Base-0x200c68>
    1122:	e8 89 f8 ff ff       	call   9b0 <_edata@@Base-0x201660>
    1127:	48 8d 3d a2 02 00 00 	lea    rdi,[rip+0x2a2]        # 13d0 <_edata@@Base-0x200c40>
    112e:	e8 7d f8 ff ff       	call   9b0 <_edata@@Base-0x201660>
    1133:	48 8d 3d 6e 02 00 00 	lea    rdi,[rip+0x26e]        # 13a8 <_edata@@Base-0x200c68>
    113a:	e8 71 f8 ff ff       	call   9b0 <_edata@@Base-0x201660>
    113f:	48 8d 3d b2 02 00 00 	lea    rdi,[rip+0x2b2]        # 13f8 <_edata@@Base-0x200c18>
    1146:	e8 65 f8 ff ff       	call   9b0 <_edata@@Base-0x201660>
    114b:	48 8d 3d ce 02 00 00 	lea    rdi,[rip+0x2ce]        # 1420 <_edata@@Base-0x200bf0>
    1152:	e8 59 f8 ff ff       	call   9b0 <_edata@@Base-0x201660>
    1157:	48 8d 3d ea 02 00 00 	lea    rdi,[rip+0x2ea]        # 1448 <_edata@@Base-0x200bc8>
    115e:	e8 4d f8 ff ff       	call   9b0 <_edata@@Base-0x201660>
    1163:	48 8d 3d 06 03 00 00 	lea    rdi,[rip+0x306]        # 1470 <_edata@@Base-0x200ba0>
    116a:	e8 41 f8 ff ff       	call   9b0 <_edata@@Base-0x201660>
    116f:	48 8d 3d 32 02 00 00 	lea    rdi,[rip+0x232]        # 13a8 <_edata@@Base-0x200c68>
    1176:	e8 35 f8 ff ff       	call   9b0 <_edata@@Base-0x201660>
    117b:	48 8d 3d 11 03 00 00 	lea    rdi,[rip+0x311]        # 1493 <_edata@@Base-0x200b7d>
    1182:	b8 00 00 00 00       	mov    eax,0x0
    1187:	e8 3c f8 ff ff       	call   9c8 <_edata@@Base-0x201648>
    118c:	90                   	nop
    118d:	5d                   	pop    rbp
    118e:	c3                   	ret    
    118f:	55                   	push   rbp
    1190:	48 89 e5             	mov    rbp,rsp
    1193:	b8 00 00 00 00       	mov    eax,0x0
    1198:	e8 c3 f9 ff ff       	call   b60 <_edata@@Base-0x2014b0>
    119d:	b8 00 00 00 00       	mov    eax,0x0
    11a2:	e8 70 ff ff ff       	call   1117 <_edata@@Base-0x200ef9>
    11a7:	b8 00 00 00 00       	mov    eax,0x0
    11ac:	e8 f8 fa ff ff       	call   ca9 <_edata@@Base-0x201367>
    11b1:	83 f8 03             	cmp    eax,0x3
    11b4:	74 37                	je     11ed <_edata@@Base-0x200e23>
    11b6:	83 f8 03             	cmp    eax,0x3
    11b9:	7f 0c                	jg     11c7 <_edata@@Base-0x200e49>
    11bb:	83 f8 01             	cmp    eax,0x1
    11be:	74 15                	je     11d5 <_edata@@Base-0x200e3b>
    11c0:	83 f8 02             	cmp    eax,0x2
    11c3:	74 1c                	je     11e1 <_edata@@Base-0x200e2f>
    11c5:	eb 48                	jmp    120f <_edata@@Base-0x200e01>
    11c7:	83 f8 04             	cmp    eax,0x4
    11ca:	74 2d                	je     11f9 <_edata@@Base-0x200e17>
    11cc:	3d 05 13 00 00       	cmp    eax,0x1305
    11d1:	74 30                	je     1203 <_edata@@Base-0x200e0d>
    11d3:	eb 3a                	jmp    120f <_edata@@Base-0x200e01>
    11d5:	b8 00 00 00 00       	mov    eax,0x0
    11da:	e8 8d fc ff ff       	call   e6c <_edata@@Base-0x2011a4>
    11df:	eb 3b                	jmp    121c <_edata@@Base-0x200df4>
    11e1:	b8 00 00 00 00       	mov    eax,0x0
    11e6:	e8 51 fd ff ff       	call   f3c <_edata@@Base-0x2010d4>
    11eb:	eb 2f                	jmp    121c <_edata@@Base-0x200df4>
    11ed:	b8 00 00 00 00       	mov    eax,0x0
    11f2:	e8 76 fe ff ff       	call   106d <_edata@@Base-0x200fa3>
    11f7:	eb 23                	jmp    121c <_edata@@Base-0x200df4>
    11f9:	bf 00 00 00 00       	mov    edi,0x0
    11fe:	e8 15 f8 ff ff       	call   a18 <_edata@@Base-0x2015f8>
    1203:	b8 00 00 00 00       	mov    eax,0x0
    1208:	e8 27 fc ff ff       	call   e34 <_edata@@Base-0x2011dc>
    120d:	eb 0d                	jmp    121c <_edata@@Base-0x200df4>
    120f:	48 8d 3d 8b 02 00 00 	lea    rdi,[rip+0x28b]        # 14a1 <_edata@@Base-0x200b6f>
    1216:	e8 95 f7 ff ff       	call   9b0 <_edata@@Base-0x201660>
    121b:	90                   	nop
    121c:	e9 7c ff ff ff       	jmp    119d <_edata@@Base-0x200e73>
    1221:	66 2e 0f 1f 84 00 00 	nop    WORD PTR cs:[rax+rax*1+0x0]
    1228:	00 00 00 
    122b:	0f 1f 44 00 00       	nop    DWORD PTR [rax+rax*1+0x0]
    1230:	41 57                	push   r15
    1232:	41 56                	push   r14
    1234:	41 89 ff             	mov    r15d,edi
    1237:	41 55                	push   r13
    1239:	41 54                	push   r12
    123b:	4c 8d 25 16 0b 20 00 	lea    r12,[rip+0x200b16]        # 201d58 <_edata@@Base-0x2b8>
    1242:	55                   	push   rbp
    1243:	48 8d 2d 16 0b 20 00 	lea    rbp,[rip+0x200b16]        # 201d60 <_edata@@Base-0x2b0>
    124a:	53                   	push   rbx
    124b:	49 89 f6             	mov    r14,rsi
    124e:	49 89 d5             	mov    r13,rdx
    1251:	4c 29 e5             	sub    rbp,r12
    1254:	48 83 ec 08          	sub    rsp,0x8
    1258:	48 c1 fd 03          	sar    rbp,0x3
    125c:	e8 07 f7 ff ff       	call   968 <_edata@@Base-0x2016a8>
    1261:	48 85 ed             	test   rbp,rbp
    1264:	74 20                	je     1286 <_edata@@Base-0x200d8a>
    1266:	31 db                	xor    ebx,ebx
    1268:	0f 1f 84 00 00 00 00 	nop    DWORD PTR [rax+rax*1+0x0]
    126f:	00 
    1270:	4c 89 ea             	mov    rdx,r13
    1273:	4c 89 f6             	mov    rsi,r14
    1276:	44 89 ff             	mov    edi,r15d
    1279:	41 ff 14 dc          	call   QWORD PTR [r12+rbx*8]
    127d:	48 83 c3 01          	add    rbx,0x1
    1281:	48 39 eb             	cmp    rbx,rbp
    1284:	75 ea                	jne    1270 <_edata@@Base-0x200da0>
    1286:	48 83 c4 08          	add    rsp,0x8
    128a:	5b                   	pop    rbx
    128b:	5d                   	pop    rbp
    128c:	41 5c                	pop    r12
    128e:	41 5d                	pop    r13
    1290:	41 5e                	pop    r14
    1292:	41 5f                	pop    r15
    1294:	c3                   	ret    
    1295:	90                   	nop
    1296:	66 2e 0f 1f 84 00 00 	nop    WORD PTR cs:[rax+rax*1+0x0]
    129d:	00 00 00 
    12a0:	f3 c3                	repz ret 

Disassembly of section .fini:

00000000000012a4 <.fini>:
    12a4:	48 83 ec 08          	sub    rsp,0x8
    12a8:	48 83 c4 08          	add    rsp,0x8
    12ac:	c3                   	ret    
