
binary_200：     檔案格式 elf32-i386


Disassembly of section .init:

080483a8 <_init>:
 80483a8:	53                   	push   %ebx
 80483a9:	83 ec 08             	sub    $0x8,%esp
 80483ac:	e8 cf 00 00 00       	call   8048480 <__x86.get_pc_thunk.bx>
 80483b1:	81 c3 4f 1c 00 00    	add    $0x1c4f,%ebx
 80483b7:	8b 83 fc ff ff ff    	mov    -0x4(%ebx),%eax
 80483bd:	85 c0                	test   %eax,%eax
 80483bf:	74 05                	je     80483c6 <_init+0x1e>
 80483c1:	e8 5a 00 00 00       	call   8048420 <__gmon_start__@plt>
 80483c6:	83 c4 08             	add    $0x8,%esp
 80483c9:	5b                   	pop    %ebx
 80483ca:	c3                   	ret    

Disassembly of section .plt:

080483d0 <printf@plt-0x10>:
 80483d0:	ff 35 04 a0 04 08    	pushl  0x804a004
 80483d6:	ff 25 08 a0 04 08    	jmp    *0x804a008
 80483dc:	00 00                	add    %al,(%eax)
	...

080483e0 <printf@plt>:
 80483e0:	ff 25 0c a0 04 08    	jmp    *0x804a00c
 80483e6:	68 00 00 00 00       	push   $0x0
 80483eb:	e9 e0 ff ff ff       	jmp    80483d0 <_init+0x28>

080483f0 <gets@plt>:
 80483f0:	ff 25 10 a0 04 08    	jmp    *0x804a010
 80483f6:	68 08 00 00 00       	push   $0x8
 80483fb:	e9 d0 ff ff ff       	jmp    80483d0 <_init+0x28>

08048400 <__stack_chk_fail@plt>:
 8048400:	ff 25 14 a0 04 08    	jmp    *0x804a014
 8048406:	68 10 00 00 00       	push   $0x10
 804840b:	e9 c0 ff ff ff       	jmp    80483d0 <_init+0x28>

08048410 <system@plt>:
 8048410:	ff 25 18 a0 04 08    	jmp    *0x804a018
 8048416:	68 18 00 00 00       	push   $0x18
 804841b:	e9 b0 ff ff ff       	jmp    80483d0 <_init+0x28>

08048420 <__gmon_start__@plt>:
 8048420:	ff 25 1c a0 04 08    	jmp    *0x804a01c
 8048426:	68 20 00 00 00       	push   $0x20
 804842b:	e9 a0 ff ff ff       	jmp    80483d0 <_init+0x28>

08048430 <__libc_start_main@plt>:
 8048430:	ff 25 20 a0 04 08    	jmp    *0x804a020
 8048436:	68 28 00 00 00       	push   $0x28
 804843b:	e9 90 ff ff ff       	jmp    80483d0 <_init+0x28>

08048440 <setvbuf@plt>:
 8048440:	ff 25 24 a0 04 08    	jmp    *0x804a024
 8048446:	68 30 00 00 00       	push   $0x30
 804844b:	e9 80 ff ff ff       	jmp    80483d0 <_init+0x28>

Disassembly of section .text:

08048450 <_start>:
 8048450:	31 ed                	xor    %ebp,%ebp
 8048452:	5e                   	pop    %esi
 8048453:	89 e1                	mov    %esp,%ecx
 8048455:	83 e4 f0             	and    $0xfffffff0,%esp
 8048458:	50                   	push   %eax
 8048459:	54                   	push   %esp
 804845a:	52                   	push   %edx
 804845b:	68 70 86 04 08       	push   $0x8048670
 8048460:	68 00 86 04 08       	push   $0x8048600
 8048465:	51                   	push   %ecx
 8048466:	56                   	push   %esi
 8048467:	68 61 85 04 08       	push   $0x8048561
 804846c:	e8 bf ff ff ff       	call   8048430 <__libc_start_main@plt>
 8048471:	f4                   	hlt    
 8048472:	66 90                	xchg   %ax,%ax
 8048474:	66 90                	xchg   %ax,%ax
 8048476:	66 90                	xchg   %ax,%ax
 8048478:	66 90                	xchg   %ax,%ax
 804847a:	66 90                	xchg   %ax,%ax
 804847c:	66 90                	xchg   %ax,%ax
 804847e:	66 90                	xchg   %ax,%ax

08048480 <__x86.get_pc_thunk.bx>:
 8048480:	8b 1c 24             	mov    (%esp),%ebx
 8048483:	c3                   	ret    
 8048484:	66 90                	xchg   %ax,%ax
 8048486:	66 90                	xchg   %ax,%ax
 8048488:	66 90                	xchg   %ax,%ax
 804848a:	66 90                	xchg   %ax,%ax
 804848c:	66 90                	xchg   %ax,%ax
 804848e:	66 90                	xchg   %ax,%ax

08048490 <deregister_tm_clones>:
 8048490:	b8 33 a0 04 08       	mov    $0x804a033,%eax
 8048495:	2d 30 a0 04 08       	sub    $0x804a030,%eax
 804849a:	83 f8 06             	cmp    $0x6,%eax
 804849d:	77 01                	ja     80484a0 <deregister_tm_clones+0x10>
 804849f:	c3                   	ret    
 80484a0:	b8 00 00 00 00       	mov    $0x0,%eax
 80484a5:	85 c0                	test   %eax,%eax
 80484a7:	74 f6                	je     804849f <deregister_tm_clones+0xf>
 80484a9:	55                   	push   %ebp
 80484aa:	89 e5                	mov    %esp,%ebp
 80484ac:	83 ec 18             	sub    $0x18,%esp
 80484af:	c7 04 24 30 a0 04 08 	movl   $0x804a030,(%esp)
 80484b6:	ff d0                	call   *%eax
 80484b8:	c9                   	leave  
 80484b9:	c3                   	ret    
 80484ba:	8d b6 00 00 00 00    	lea    0x0(%esi),%esi

080484c0 <register_tm_clones>:
 80484c0:	b8 30 a0 04 08       	mov    $0x804a030,%eax
 80484c5:	2d 30 a0 04 08       	sub    $0x804a030,%eax
 80484ca:	c1 f8 02             	sar    $0x2,%eax
 80484cd:	89 c2                	mov    %eax,%edx
 80484cf:	c1 ea 1f             	shr    $0x1f,%edx
 80484d2:	01 d0                	add    %edx,%eax
 80484d4:	d1 f8                	sar    %eax
 80484d6:	75 01                	jne    80484d9 <register_tm_clones+0x19>
 80484d8:	c3                   	ret    
 80484d9:	ba 00 00 00 00       	mov    $0x0,%edx
 80484de:	85 d2                	test   %edx,%edx
 80484e0:	74 f6                	je     80484d8 <register_tm_clones+0x18>
 80484e2:	55                   	push   %ebp
 80484e3:	89 e5                	mov    %esp,%ebp
 80484e5:	83 ec 18             	sub    $0x18,%esp
 80484e8:	89 44 24 04          	mov    %eax,0x4(%esp)
 80484ec:	c7 04 24 30 a0 04 08 	movl   $0x804a030,(%esp)
 80484f3:	ff d2                	call   *%edx
 80484f5:	c9                   	leave  
 80484f6:	c3                   	ret    
 80484f7:	89 f6                	mov    %esi,%esi
 80484f9:	8d bc 27 00 00 00 00 	lea    0x0(%edi,%eiz,1),%edi

08048500 <__do_global_dtors_aux>:
 8048500:	80 3d 64 a0 04 08 00 	cmpb   $0x0,0x804a064
 8048507:	75 13                	jne    804851c <__do_global_dtors_aux+0x1c>
 8048509:	55                   	push   %ebp
 804850a:	89 e5                	mov    %esp,%ebp
 804850c:	83 ec 08             	sub    $0x8,%esp
 804850f:	e8 7c ff ff ff       	call   8048490 <deregister_tm_clones>
 8048514:	c6 05 64 a0 04 08 01 	movb   $0x1,0x804a064
 804851b:	c9                   	leave  
 804851c:	f3 c3                	repz ret 
 804851e:	66 90                	xchg   %ax,%ax

08048520 <frame_dummy>:
 8048520:	a1 10 9f 04 08       	mov    0x8049f10,%eax
 8048525:	85 c0                	test   %eax,%eax
 8048527:	74 1f                	je     8048548 <frame_dummy+0x28>
 8048529:	b8 00 00 00 00       	mov    $0x0,%eax
 804852e:	85 c0                	test   %eax,%eax
 8048530:	74 16                	je     8048548 <frame_dummy+0x28>
 8048532:	55                   	push   %ebp
 8048533:	89 e5                	mov    %esp,%ebp
 8048535:	83 ec 18             	sub    $0x18,%esp
 8048538:	c7 04 24 10 9f 04 08 	movl   $0x8049f10,(%esp)
 804853f:	ff d0                	call   *%eax
 8048541:	c9                   	leave  
 8048542:	e9 79 ff ff ff       	jmp    80484c0 <register_tm_clones>
 8048547:	90                   	nop
 8048548:	e9 73 ff ff ff       	jmp    80484c0 <register_tm_clones>

0804854d <canary_protect_me>:
 804854d:	55                   	push   %ebp
 804854e:	89 e5                	mov    %esp,%ebp
 8048550:	83 ec 18             	sub    $0x18,%esp
 8048553:	c7 04 24 90 86 04 08 	movl   $0x8048690,(%esp)
 804855a:	e8 b1 fe ff ff       	call   8048410 <system@plt>
 804855f:	c9                   	leave  
 8048560:	c3                   	ret    

08048561 <main>:
 8048561:	55                   	push   %ebp
 8048562:	89 e5                	mov    %esp,%ebp
 8048564:	83 e4 f0             	and    $0xfffffff0,%esp
 8048567:	83 ec 40             	sub    $0x40,%esp
 804856a:	65 a1 14 00 00 00    	mov    %gs:0x14,%eax
 8048570:	89 44 24 3c          	mov    %eax,0x3c(%esp)
 8048574:	31 c0                	xor    %eax,%eax
 8048576:	a1 60 a0 04 08       	mov    0x804a060,%eax
 804857b:	c7 44 24 0c 00 00 00 	movl   $0x0,0xc(%esp)
 8048582:	00 
 8048583:	c7 44 24 08 02 00 00 	movl   $0x2,0x8(%esp)
 804858a:	00 
 804858b:	c7 44 24 04 00 00 00 	movl   $0x0,0x4(%esp)
 8048592:	00 
 8048593:	89 04 24             	mov    %eax,(%esp)
 8048596:	e8 a5 fe ff ff       	call   8048440 <setvbuf@plt>
 804859b:	a1 40 a0 04 08       	mov    0x804a040,%eax
 80485a0:	c7 44 24 0c 00 00 00 	movl   $0x0,0xc(%esp)
 80485a7:	00 
 80485a8:	c7 44 24 08 01 00 00 	movl   $0x1,0x8(%esp)
 80485af:	00 
 80485b0:	c7 44 24 04 00 00 00 	movl   $0x0,0x4(%esp)
 80485b7:	00 
 80485b8:	89 04 24             	mov    %eax,(%esp)
 80485bb:	e8 80 fe ff ff       	call   8048440 <setvbuf@plt>
 80485c0:	8d 44 24 14          	lea    0x14(%esp),%eax
 80485c4:	89 04 24             	mov    %eax,(%esp)
 80485c7:	e8 24 fe ff ff       	call   80483f0 <gets@plt>
 80485cc:	8d 44 24 14          	lea    0x14(%esp),%eax
 80485d0:	89 04 24             	mov    %eax,(%esp)
 80485d3:	e8 08 fe ff ff       	call   80483e0 <printf@plt>
 80485d8:	8d 44 24 14          	lea    0x14(%esp),%eax
 80485dc:	89 04 24             	mov    %eax,(%esp)
 80485df:	e8 0c fe ff ff       	call   80483f0 <gets@plt>
 80485e4:	b8 00 00 00 00       	mov    $0x0,%eax
 80485e9:	8b 54 24 3c          	mov    0x3c(%esp),%edx
 80485ed:	65 33 15 14 00 00 00 	xor    %gs:0x14,%edx
 80485f4:	74 05                	je     80485fb <main+0x9a>
 80485f6:	e8 05 fe ff ff       	call   8048400 <__stack_chk_fail@plt>
 80485fb:	c9                   	leave  
 80485fc:	c3                   	ret    
 80485fd:	66 90                	xchg   %ax,%ax
 80485ff:	90                   	nop

08048600 <__libc_csu_init>:
 8048600:	55                   	push   %ebp
 8048601:	57                   	push   %edi
 8048602:	31 ff                	xor    %edi,%edi
 8048604:	56                   	push   %esi
 8048605:	53                   	push   %ebx
 8048606:	e8 75 fe ff ff       	call   8048480 <__x86.get_pc_thunk.bx>
 804860b:	81 c3 f5 19 00 00    	add    $0x19f5,%ebx
 8048611:	83 ec 1c             	sub    $0x1c,%esp
 8048614:	8b 6c 24 30          	mov    0x30(%esp),%ebp
 8048618:	8d b3 0c ff ff ff    	lea    -0xf4(%ebx),%esi
 804861e:	e8 85 fd ff ff       	call   80483a8 <_init>
 8048623:	8d 83 08 ff ff ff    	lea    -0xf8(%ebx),%eax
 8048629:	29 c6                	sub    %eax,%esi
 804862b:	c1 fe 02             	sar    $0x2,%esi
 804862e:	85 f6                	test   %esi,%esi
 8048630:	74 27                	je     8048659 <__libc_csu_init+0x59>
 8048632:	8d b6 00 00 00 00    	lea    0x0(%esi),%esi
 8048638:	8b 44 24 38          	mov    0x38(%esp),%eax
 804863c:	89 2c 24             	mov    %ebp,(%esp)
 804863f:	89 44 24 08          	mov    %eax,0x8(%esp)
 8048643:	8b 44 24 34          	mov    0x34(%esp),%eax
 8048647:	89 44 24 04          	mov    %eax,0x4(%esp)
 804864b:	ff 94 bb 08 ff ff ff 	call   *-0xf8(%ebx,%edi,4)
 8048652:	83 c7 01             	add    $0x1,%edi
 8048655:	39 f7                	cmp    %esi,%edi
 8048657:	75 df                	jne    8048638 <__libc_csu_init+0x38>
 8048659:	83 c4 1c             	add    $0x1c,%esp
 804865c:	5b                   	pop    %ebx
 804865d:	5e                   	pop    %esi
 804865e:	5f                   	pop    %edi
 804865f:	5d                   	pop    %ebp
 8048660:	c3                   	ret    
 8048661:	eb 0d                	jmp    8048670 <__libc_csu_fini>
 8048663:	90                   	nop
 8048664:	90                   	nop
 8048665:	90                   	nop
 8048666:	90                   	nop
 8048667:	90                   	nop
 8048668:	90                   	nop
 8048669:	90                   	nop
 804866a:	90                   	nop
 804866b:	90                   	nop
 804866c:	90                   	nop
 804866d:	90                   	nop
 804866e:	90                   	nop
 804866f:	90                   	nop

08048670 <__libc_csu_fini>:
 8048670:	f3 c3                	repz ret 

Disassembly of section .fini:

08048674 <_fini>:
 8048674:	53                   	push   %ebx
 8048675:	83 ec 08             	sub    $0x8,%esp
 8048678:	e8 03 fe ff ff       	call   8048480 <__x86.get_pc_thunk.bx>
 804867d:	81 c3 83 19 00 00    	add    $0x1983,%ebx
 8048683:	83 c4 08             	add    $0x8,%esp
 8048686:	5b                   	pop    %ebx
 8048687:	c3                   	ret    
